; Function Attrs: nounwind uwtable
define ptr @l_Std_Time_Day_Ordinal_instOfNatOfYear___boxed(ptr noundef %0, ptr noundef %1) local_unnamed_addr #0 {
  %3 = ptrtoint ptr %0 to i64
  %4 = and i64 %3, 1
  %.not = icmp eq i64 %4, 0
  br i1 %.not, label %5, label %lean_dec.exit

5:                                                ; preds = %2
  %6 = load i32, ptr %0, align 4, !tbaa !5
  %7 = icmp sgt i32 %6, 1
  br i1 %7, label %8, label %10, !prof !10

8:                                                ; preds = %5
  %9 = add nsw i32 %6, -1
  store i32 %9, ptr %0, align 4, !tbaa !5
  br label %lean_dec.exit

10:                                               ; preds = %5
  %.not.i = icmp eq i32 %6, 0
  br i1 %.not.i, label %lean_dec.exit, label %11

11:                                               ; preds = %10
  tail call void @lean_dec_ref_cold(ptr noundef nonnull %0) #6
  br label %lean_dec.exit

lean_dec.exit:                                    ; preds = %11, %10, %8, %2
  %12 = and i64 %3, 510
  %13 = icmp eq i64 %12, 0
  %14 = load ptr, ptr @l_Std_Time_Day_instOfNatOrdinal___closed__1, align 8, !tbaa !11
  %..i = select i1 %13, ptr inttoptr (i64 729 to ptr), ptr inttoptr (i64 731 to ptr)
  %15 = tail call ptr @l_Std_Time_Internal_Bounded_LE_instOfNatHAddIntCast(ptr noundef %14, ptr noundef %1, ptr noundef nonnull %..i) #6
  ret ptr %15
}